target datalayout = "e-m:e-p270:32:32-p271:32:32-p272:64:64-i64:64-i128:128-f80:128-n8:16:32:64-S128"
target triple = "x86_64-pc-linux-gnu"

%"class.fmt::v11::file" = type { i32 }

@.str = private unnamed_addr constant [18 x i8] c"cannot close file\00", align 1
@_ZN12_GLOBAL__N_111close_countE = internal global i32 0, align 4

; Function Attrs: mustprogress uwtable
define hidden noundef i32 @_ZN4test5closeEi(i32 noundef %0) #1 {
  %2 = alloca i32, align 4
  %3 = alloca i32, align 4
  %4 = alloca i32, align 4
  %5 = alloca i32, align 4
  store i32 %0, ptr %3, align 4, !tbaa !12
  call void @llvm.lifetime.start.p0(i64 4, ptr %4) #16
  %6 = load i32, ptr %3, align 4, !tbaa !12
  %7 = call i32 @close(i32 noundef %6)
  store i32 %7, ptr %4, align 4, !tbaa !12
  %8 = load i32, ptr @_ZN12_GLOBAL__N_111close_countE, align 4, !tbaa !12
  %9 = icmp ne i32 %8, 0
  br i1 %9, label %10, label %17

10:                                               ; preds = %1
  %11 = load i32, ptr @_ZN12_GLOBAL__N_111close_countE, align 4, !tbaa !12
  %12 = add nsw i32 %11, 1
  store i32 %12, ptr @_ZN12_GLOBAL__N_111close_countE, align 4, !tbaa !12
  %13 = icmp ne i32 %11, 3
  br i1 %13, label %14, label %16

14:                                               ; preds = %10
  %15 = call ptr @__errno_location() #20
  store i32 4, ptr %15, align 4, !tbaa !12
  store i32 -1, ptr %2, align 4
  store i32 1, ptr %5, align 4
  br label %19

16:                                               ; preds = %10
  br label %17

17:                                               ; preds = %16, %1
  %18 = load i32, ptr %4, align 4, !tbaa !12
  store i32 %18, ptr %2, align 4
  store i32 1, ptr %5, align 4
  br label %19

19:                                               ; preds = %17, %14
  call void @llvm.lifetime.end.p0(i64 4, ptr %4) #16
  %20 = load i32, ptr %2, align 4
  ret i32 %20
}

; Function Attrs: mustprogress nounwind uwtable
define hidden void @_ZN3fmt3v114fileD2Ev(ptr noundef nonnull align 4 dereferenceable(4) %0) unnamed_addr #0 align 2 personality ptr @__gxx_personality_v0 {
  %2 = alloca ptr, align 8
  store ptr %0, ptr %2, align 8, !tbaa !39
  %3 = load ptr, ptr %2, align 8
  %4 = getelementptr inbounds nuw %"class.fmt::v11::file", ptr %3, i32 0, i32 0
  %5 = load i32, ptr %4, align 4, !tbaa !41
  %6 = icmp ne i32 %5, -1
  br i1 %6, label %7, label %16

7:                                                ; preds = %1
  %8 = getelementptr inbounds nuw %"class.fmt::v11::file", ptr %3, i32 0, i32 0
  %9 = load i32, ptr %8, align 4, !tbaa !41
  %10 = invoke noundef i32 @_ZN4test5closeEi(i32 noundef %9)
          to label %11 unwind label %17

11:                                               ; preds = %7
  %12 = icmp ne i32 %10, 0
  br i1 %12, label %13, label %16

13:                                               ; preds = %11
  %14 = call ptr @__errno_location() #20
  %15 = load i32, ptr %14, align 4, !tbaa !12
  call void @_ZN3fmt3v1119report_system_errorEiPKc(i32 noundef %15, ptr noundef @.str) #16
  br label %16

16:                                               ; preds = %13, %11, %1
  ret void

17:                                               ; preds = %7
  %18 = landingpad { ptr, i32 }
          catch ptr null
  %19 = extractvalue { ptr, i32 } %18, 0
  call void @__clang_call_terminate(ptr %19) #21
  unreachable
}