; Function Attrs: mustprogress nounwind uwtable
define hidden void @_ZN3fmt3v114fileD2Ev(ptr noundef nonnull readonly align 4 captures(none) dereferenceable(4) %0) unnamed_addr #0 align 2 personality ptr @__gxx_personality_v0 {
  %2 = load i32, ptr %0, align 4, !tbaa !24
  %.not = icmp eq i32 %2, -1
  br i1 %.not, label %11, label %3

3:                                                ; preds = %1
  %4 = invoke i32 @close(i32 noundef %2)
          to label %.noexc unwind label %12

.noexc:                                           ; preds = %3
  %5 = load i32, ptr @_ZN12_GLOBAL__N_111close_countE, align 4, !tbaa !10
  %.not.i = icmp eq i32 %5, 0
  br i1 %.not.i, label %_ZN4test5closeEi.exit, label %6

6:                                                ; preds = %.noexc
  %7 = add nsw i32 %5, 1
  store i32 %7, ptr @_ZN12_GLOBAL__N_111close_countE, align 4, !tbaa !10
  %.not4.i = icmp eq i32 %5, 3
  br i1 %.not4.i, label %_ZN4test5closeEi.exit, label %_ZN4test5closeEi.exit.thread

_ZN4test5closeEi.exit.thread:                     ; preds = %6
  %8 = tail call ptr @__errno_location() #28
  store i32 4, ptr %8, align 4, !tbaa !10
  br label %9

_ZN4test5closeEi.exit:                            ; preds = %6, %.noexc
  %.not1 = icmp eq i32 %4, 0
  br i1 %.not1, label %11, label %_ZN4test5closeEi.exit._crit_edge

_ZN4test5closeEi.exit._crit_edge:                 ; preds = %_ZN4test5closeEi.exit
  %.pre = tail call ptr @__errno_location() #28
  br label %9

9:                                                ; preds = %_ZN4test5closeEi.exit._crit_edge, %_ZN4test5closeEi.exit.thread
  %.pre-phi = phi ptr [ %.pre, %_ZN4test5closeEi.exit._crit_edge ], [ %8, %_ZN4test5closeEi.exit.thread ]
  %10 = load i32, ptr %.pre-phi, align 4, !tbaa !10
  tail call void @_ZN3fmt3v1119report_system_errorEiPKc(i32 noundef %10, ptr noundef nonnull @.str) #29
  br label %11

11:                                               ; preds = %9, %_ZN4test5closeEi.exit, %1
  ret void

12:                                               ; preds = %3
  %13 = landingpad { ptr, i32 }
          catch ptr null
  %14 = extractvalue { ptr, i32 } %13, 0
  tail call void @__clang_call_terminate(ptr %14) #30
  unreachable
}